; Function Attrs: mustprogress nofree norecurse nosync nounwind willreturn memory(argmem: read) uwtable
define dso_local noundef ptr @_ZNK15cmDocumentation13GetNameStringEv(ptr noundef nonnull readonly align 8 captures(none) dereferenceable(152) %0) local_unnamed_addr #8 align 2 personality ptr @__gxx_personality_v0 {
  %2 = getelementptr inbounds nuw i8, ptr %0, i64 8
  %3 = getelementptr inbounds nuw i8, ptr %0, i64 16
  %4 = load i64, ptr %3, align 8, !tbaa !15
  %5 = icmp eq i64 %4, 0
  %6 = load ptr, ptr %2, align 8
  %spec.select = select i1 %5, ptr @.str.152, ptr %6
  ret ptr %spec.select
}